target datalayout = "e-m:e-p270:32:32-p271:32:32-p272:64:64-i64:64-i128:128-f80:128-n8:16:32:64-S128"
target triple = "x86_64-pc-linux-gnu"

; Function Attrs: nounwind uwtable
define i32 @Extra_TruthSupport(ptr noundef %0, i32 noundef %1) #0 {
  %3 = alloca ptr, align 8
  %4 = alloca i32, align 4
  %5 = alloca i32, align 4
  %6 = alloca i32, align 4
  store ptr %0, ptr %3, align 8, !tbaa !10
  store i32 %1, ptr %4, align 4, !tbaa !3
  call void @llvm.lifetime.start.p0(i64 4, ptr %5) #5
  call void @llvm.lifetime.start.p0(i64 4, ptr %6) #5
  store i32 0, ptr %6, align 4, !tbaa !3
  store i32 0, ptr %5, align 4, !tbaa !3
  br label %7

7:                                                ; preds = %23, %2
  %8 = load i32, ptr %5, align 4, !tbaa !3
  %9 = load i32, ptr %4, align 4, !tbaa !3
  %10 = icmp slt i32 %8, %9
  br i1 %10, label %11, label %26

11:                                               ; preds = %7
  %12 = load ptr, ptr %3, align 8, !tbaa !10
  %13 = load i32, ptr %4, align 4, !tbaa !3
  %14 = load i32, ptr %5, align 4, !tbaa !3
  %15 = call i32 @Extra_TruthVarInSupport(ptr noundef %12, i32 noundef %13, i32 noundef %14)
  %16 = icmp ne i32 %15, 0
  br i1 %16, label %17, label %22

17:                                               ; preds = %11
  %18 = load i32, ptr %5, align 4, !tbaa !3
  %19 = shl i32 1, %18
  %20 = load i32, ptr %6, align 4, !tbaa !3
  %21 = or i32 %20, %19
  store i32 %21, ptr %6, align 4, !tbaa !3
  br label %22

22:                                               ; preds = %17, %11
  br label %23

23:                                               ; preds = %22
  %24 = load i32, ptr %5, align 4, !tbaa !3
  %25 = add nsw i32 %24, 1
  store i32 %25, ptr %5, align 4, !tbaa !3
  br label %7, !llvm.loop !46

26:                                               ; preds = %7
  %27 = load i32, ptr %6, align 4, !tbaa !3
  call void @llvm.lifetime.end.p0(i64 4, ptr %6) #5
  call void @llvm.lifetime.end.p0(i64 4, ptr %5) #5
  ret i32 %27
}